target datalayout = "e-m:e-p270:32:32-p271:32:32-p272:64:64-i64:64-i128:128-f80:128-n8:16:32:64-S128"
target triple = "x86_64-pc-linux-gnu"

%struct.Vec_Ptr_t_ = type { i32, i32, ptr }
%struct.Vec_Int_t_ = type { i32, i32, ptr }
%struct.Sim_Man_t_ = type { ptr, i32, i32, i32, i32, i32, ptr, ptr, i32, i32, ptr, ptr, ptr, i32, ptr, ptr, ptr, i32, i32, i32, i64, i64, i64, i64, i64 }
%struct.Abc_Obj_t_ = type { ptr, ptr, i32, i32, %struct.Vec_Int_t_, %struct.Vec_Int_t_, %union.anon, %union.anon.0 }
%union.anon = type { ptr }
%union.anon.0 = type { ptr }

; Function Attrs: nounwind uwtable
define void @Sim_UtilInfoFlip(ptr noundef %0, ptr noundef %1) #0 {
  %3 = alloca ptr, align 8
  %4 = alloca ptr, align 8
  %5 = alloca ptr, align 8
  %6 = alloca ptr, align 8
  %7 = alloca i32, align 4
  store ptr %0, ptr %3, align 8, !tbaa !30
  store ptr %1, ptr %4, align 8, !tbaa !32
  call void @llvm.lifetime.start.p0(i64 8, ptr %5) #8
  call void @llvm.lifetime.start.p0(i64 8, ptr %6) #8
  call void @llvm.lifetime.start.p0(i64 4, ptr %7) #8
  %8 = load ptr, ptr %3, align 8, !tbaa !30
  %9 = getelementptr inbounds nuw %struct.Sim_Man_t_, ptr %8, i32 0, i32 6
  %10 = load ptr, ptr %9, align 8, !tbaa !34
  %11 = getelementptr inbounds nuw %struct.Vec_Ptr_t_, ptr %10, i32 0, i32 2
  %12 = load ptr, ptr %11, align 8, !tbaa !10
  %13 = load ptr, ptr %4, align 8, !tbaa !32
  %14 = getelementptr inbounds nuw %struct.Abc_Obj_t_, ptr %13, i32 0, i32 2
  %15 = load i32, ptr %14, align 8, !tbaa !40
  %16 = sext i32 %15 to i64
  %17 = getelementptr inbounds ptr, ptr %12, i64 %16
  %18 = load ptr, ptr %17, align 8, !tbaa !12
  store ptr %18, ptr %5, align 8, !tbaa !17
  %19 = load ptr, ptr %3, align 8, !tbaa !30
  %20 = getelementptr inbounds nuw %struct.Sim_Man_t_, ptr %19, i32 0, i32 7
  %21 = load ptr, ptr %20, align 8, !tbaa !42
  %22 = getelementptr inbounds nuw %struct.Vec_Ptr_t_, ptr %21, i32 0, i32 2
  %23 = load ptr, ptr %22, align 8, !tbaa !10
  %24 = load ptr, ptr %4, align 8, !tbaa !32
  %25 = getelementptr inbounds nuw %struct.Abc_Obj_t_, ptr %24, i32 0, i32 2
  %26 = load i32, ptr %25, align 8, !tbaa !40
  %27 = sext i32 %26 to i64
  %28 = getelementptr inbounds ptr, ptr %23, i64 %27
  %29 = load ptr, ptr %28, align 8, !tbaa !12
  store ptr %29, ptr %6, align 8, !tbaa !17
  store i32 0, ptr %7, align 4, !tbaa !3
  br label %30

30:                                               ; preds = %47, %2
  %31 = load i32, ptr %7, align 4, !tbaa !3
  %32 = load ptr, ptr %3, align 8, !tbaa !30
  %33 = getelementptr inbounds nuw %struct.Sim_Man_t_, ptr %32, i32 0, i32 5
  %34 = load i32, ptr %33, align 8, !tbaa !43
  %35 = icmp slt i32 %31, %34
  br i1 %35, label %36, label %50

36:                                               ; preds = %30
  %37 = load ptr, ptr %5, align 8, !tbaa !17
  %38 = load i32, ptr %7, align 4, !tbaa !3
  %39 = sext i32 %38 to i64
  %40 = getelementptr inbounds i32, ptr %37, i64 %39
  %41 = load i32, ptr %40, align 4, !tbaa !3
  %42 = xor i32 %41, -1
  %43 = load ptr, ptr %6, align 8, !tbaa !17
  %44 = load i32, ptr %7, align 4, !tbaa !3
  %45 = sext i32 %44 to i64
  %46 = getelementptr inbounds i32, ptr %43, i64 %45
  store i32 %42, ptr %46, align 4, !tbaa !3
  br label %47

47:                                               ; preds = %36
  %48 = load i32, ptr %7, align 4, !tbaa !3
  %49 = add nsw i32 %48, 1
  store i32 %49, ptr %7, align 4, !tbaa !3
  br label %30, !llvm.loop !44

50:                                               ; preds = %30
  call void @llvm.lifetime.end.p0(i64 4, ptr %7) #8
  call void @llvm.lifetime.end.p0(i64 8, ptr %6) #8
  call void @llvm.lifetime.end.p0(i64 8, ptr %5) #8
  ret void
}